target datalayout = "e-m:e-p270:32:32-p271:32:32-p272:64:64-i64:64-i128:128-f80:128-n8:16:32:64-S128"
target triple = "x86_64-pc-linux-gnu"

%struct.UserData = type { double, double, double }

; Function Attrs: nounwind uwtable
define internal i32 @vdot(double noundef %0, ptr noundef %1, ptr noundef %2, ptr noundef %3) #0 {
  %5 = alloca double, align 8
  %6 = alloca ptr, align 8
  %7 = alloca ptr, align 8
  %8 = alloca ptr, align 8
  %9 = alloca ptr, align 8
  %10 = alloca ptr, align 8
  %11 = alloca ptr, align 8
  %12 = alloca double, align 8
  %13 = alloca double, align 8
  store double %0, ptr %5, align 8, !tbaa !17
  store ptr %1, ptr %6, align 8, !tbaa !13
  store ptr %2, ptr %7, align 8, !tbaa !13
  store ptr %3, ptr %8, align 8, !tbaa !19
  call void @llvm.lifetime.start.p0(i64 8, ptr %9) #7
  %14 = load ptr, ptr %8, align 8, !tbaa !19
  store ptr %14, ptr %9, align 8, !tbaa !19
  call void @llvm.lifetime.start.p0(i64 8, ptr %10) #7
  %15 = load ptr, ptr %6, align 8, !tbaa !13
  %16 = call ptr @N_VGetArrayPointer(ptr noundef %15)
  store ptr %16, ptr %10, align 8, !tbaa !15
  call void @llvm.lifetime.start.p0(i64 8, ptr %11) #7
  %17 = load ptr, ptr %7, align 8, !tbaa !13
  %18 = call ptr @N_VGetArrayPointer(ptr noundef %17)
  store ptr %18, ptr %11, align 8, !tbaa !15
  call void @llvm.lifetime.start.p0(i64 8, ptr %12) #7
  %19 = load ptr, ptr %10, align 8, !tbaa !15
  %20 = getelementptr inbounds double, ptr %19, i64 0
  %21 = load double, ptr %20, align 8, !tbaa !17
  store double %21, ptr %12, align 8, !tbaa !17
  call void @llvm.lifetime.start.p0(i64 8, ptr %13) #7
  %22 = load ptr, ptr %9, align 8, !tbaa !19
  %23 = getelementptr inbounds nuw %struct.UserData, ptr %22, i32 0, i32 2
  %24 = load double, ptr %23, align 8, !tbaa !29
  %25 = load ptr, ptr %9, align 8, !tbaa !19
  %26 = getelementptr inbounds nuw %struct.UserData, ptr %25, i32 0, i32 2
  %27 = load double, ptr %26, align 8, !tbaa !29
  %28 = fmul double %24, %27
  store double %28, ptr %13, align 8, !tbaa !17
  %29 = load double, ptr %13, align 8, !tbaa !17
  %30 = fneg double %29
  %31 = load double, ptr %12, align 8, !tbaa !17
  %32 = fmul double %30, %31
  %33 = load ptr, ptr %11, align 8, !tbaa !15
  %34 = getelementptr inbounds double, ptr %33, i64 1
  store double %32, ptr %34, align 8, !tbaa !17
  call void @llvm.lifetime.end.p0(i64 8, ptr %13) #7
  call void @llvm.lifetime.end.p0(i64 8, ptr %12) #7
  call void @llvm.lifetime.end.p0(i64 8, ptr %11) #7
  call void @llvm.lifetime.end.p0(i64 8, ptr %10) #7
  call void @llvm.lifetime.end.p0(i64 8, ptr %9) #7
  ret i32 0
}