; Function Attrs: nounwind uwtable
define internal noundef i32 @vdot(double %0, ptr noundef %1, ptr noundef %2, ptr noundef readonly captures(none) %3) #0 {
  %5 = tail call ptr @N_VGetArrayPointer(ptr noundef %1) #10
  %6 = tail call ptr @N_VGetArrayPointer(ptr noundef %2) #10
  %7 = load double, ptr %5, align 8, !tbaa !9
  %8 = getelementptr inbounds nuw i8, ptr %3, i64 16
  %9 = load double, ptr %8, align 8, !tbaa !18
  %10 = fneg double %9
  %11 = fmul double %9, %10
  %12 = fmul double %7, %11
  %13 = getelementptr inbounds nuw i8, ptr %6, i64 8
  store double %12, ptr %13, align 8, !tbaa !9
  ret i32 0
}